target datalayout = "e-m:e-p270:32:32-p271:32:32-p272:64:64-i64:64-i128:128-f80:128-n8:16:32:64-S128"
target triple = "x86_64-unknown-linux-gnu"

@.str.92 = private unnamed_addr constant [15 x i8] c"memory-backend\00", align 1
@.str.93 = private unnamed_addr constant [103 x i8] c"/home/dtcxzyw/WorkSpace/Projects/compilers/llvm-opt-benchmark/bench/qemu/qemu/include/sysemu/hostmem.h\00", align 1
@__func__.MEMORY_BACKEND = private unnamed_addr constant [15 x i8] c"MEMORY_BACKEND\00", align 1

; Function Attrs: nounwind sspstrong uwtable
define internal ptr @MEMORY_BACKEND(ptr noundef %obj) #0 {
entry:
  %obj.addr = alloca ptr, align 8
  store ptr %obj, ptr %obj.addr, align 8
  %0 = load ptr, ptr %obj.addr, align 8
  %call = call ptr @object_dynamic_cast_assert(ptr noundef %0, ptr noundef @.str.92, ptr noundef @.str.93, i32 noundef 25, ptr noundef @__func__.MEMORY_BACKEND)
  ret ptr %call
}

; Function Attrs: nounwind sspstrong uwtable
define internal i32 @find_max_backend_pagesize(ptr noundef %obj, ptr noundef %opaque) #0 {
entry:
  %obj.addr = alloca ptr, align 8
  %opaque.addr = alloca ptr, align 8
  %hpsize_max = alloca ptr, align 8
  %backend = alloca ptr, align 8
  %hpsize = alloca i64, align 8
  store ptr %obj, ptr %obj.addr, align 8
  store ptr %opaque, ptr %opaque.addr, align 8
  %0 = load ptr, ptr %opaque.addr, align 8
  store ptr %0, ptr %hpsize_max, align 8
  %1 = load ptr, ptr %obj.addr, align 8
  %call = call ptr @object_dynamic_cast(ptr noundef %1, ptr noundef @.str.92)
  %tobool = icmp ne ptr %call, null
  br i1 %tobool, label %if.then, label %if.end5

if.then:                                          ; preds = %entry
  %2 = load ptr, ptr %obj.addr, align 8
  %call1 = call ptr @MEMORY_BACKEND(ptr noundef %2)
  store ptr %call1, ptr %backend, align 8
  %3 = load ptr, ptr %backend, align 8
  %call2 = call i64 @host_memory_backend_pagesize(ptr noundef %3)
  store i64 %call2, ptr %hpsize, align 8
  %4 = load ptr, ptr %backend, align 8
  %call3 = call zeroext i1 @host_memory_backend_is_mapped(ptr noundef %4)
  br i1 %call3, label %land.lhs.true, label %if.end

land.lhs.true:                                    ; preds = %if.then
  %5 = load i64, ptr %hpsize, align 8
  %6 = load ptr, ptr %hpsize_max, align 8
  %7 = load i64, ptr %6, align 8
  %cmp = icmp sgt i64 %5, %7
  br i1 %cmp, label %if.then4, label %if.end

if.then4:                                         ; preds = %land.lhs.true
  %8 = load i64, ptr %hpsize, align 8
  %9 = load ptr, ptr %hpsize_max, align 8
  store i64 %8, ptr %9, align 8
  br label %if.end

if.end:                                           ; preds = %if.then4, %land.lhs.true, %if.then
  br label %if.end5

if.end5:                                          ; preds = %if.end, %entry
  ret i32 0
}