; Function Attrs: nounwind sspstrong uwtable
define internal noundef i32 @find_max_backend_pagesize(ptr noundef %obj, ptr noundef captures(none) %opaque) #0 {
entry:
  %call = tail call ptr @object_dynamic_cast(ptr noundef %obj, ptr noundef nonnull @.str.92) #28
  %tobool.not = icmp eq ptr %call, null
  br i1 %tobool.not, label %if.end5, label %if.then

if.then:                                          ; preds = %entry
  %call.i = tail call ptr @object_dynamic_cast_assert(ptr noundef %obj, ptr noundef nonnull @.str.92, ptr noundef nonnull @.str.93, i32 noundef 25, ptr noundef nonnull @__func__.MEMORY_BACKEND) #28
  %call2 = tail call i64 @host_memory_backend_pagesize(ptr noundef %call.i) #28
  %call3 = tail call zeroext i1 @host_memory_backend_is_mapped(ptr noundef %call.i) #28
  br i1 %call3, label %land.lhs.true, label %if.end5

land.lhs.true:                                    ; preds = %if.then
  %0 = load i64, ptr %opaque, align 8
  %cmp = icmp sgt i64 %call2, %0
  br i1 %cmp, label %if.then4, label %if.end5

if.then4:                                         ; preds = %land.lhs.true
  store i64 %call2, ptr %opaque, align 8
  br label %if.end5

if.end5:                                          ; preds = %if.then, %land.lhs.true, %if.then4, %entry
  ret i32 0
}